target datalayout = "e-m:e-p270:32:32-p271:32:32-p272:64:64-i64:64-i128:128-f80:128-n8:16:32:64-S128"
target triple = "x86_64-pc-linux-gnu"

; Function Attrs: mustprogress uwtable
define dso_local noundef zeroext i1 @_ZN13Probabilities10parse_lineERNSt7__cxx1112basic_stringIcSt11char_traitsIcESaIcEEES6_(ptr noundef nonnull align 8 dereferenceable(288) %0, ptr noundef nonnull align 8 dereferenceable(32) %1, ptr noundef nonnull align 8 dereferenceable(32) %2) #4 align 2 {
  %4 = alloca i1, align 1
  %5 = alloca ptr, align 8
  %6 = alloca ptr, align 8
  %7 = alloca ptr, align 8
  %8 = alloca i8, align 1
  %9 = alloca i8, align 1
  %10 = alloca i8, align 1
  store ptr %0, ptr %5, align 8
  store ptr %1, ptr %6, align 8
  store ptr %2, ptr %7, align 8
  %11 = load ptr, ptr %5, align 8
  %12 = load ptr, ptr %7, align 8
  %13 = call noundef signext i8 @_ZN11StringUtils19first_nonspace_charERKNSt7__cxx1112basic_stringIcSt11char_traitsIcESaIcEEE(ptr noundef nonnull align 8 dereferenceable(32) %12)
  store i8 %13, ptr %8, align 1
  store i8 0, ptr %9, align 1
  store i8 0, ptr %10, align 1
  %14 = load i8, ptr %8, align 1
  %15 = sext i8 %14 to i32
  %16 = icmp eq i32 %15, 0
  br i1 %16, label %17, label %18

17:                                               ; preds = %3
  br label %53

18:                                               ; preds = %3
  %19 = load i8, ptr %8, align 1
  %20 = sext i8 %19 to i32
  %21 = icmp eq i32 %20, 35
  br i1 %21, label %22, label %23

22:                                               ; preds = %18
  store i1 true, ptr %4, align 1
  br label %56

23:                                               ; preds = %18
  %24 = load i8, ptr %8, align 1
  %25 = sext i8 %24 to i32
  %26 = icmp eq i32 %25, 91
  br i1 %26, label %27, label %34

27:                                               ; preds = %23
  store i8 0, ptr %10, align 1
  %28 = load i8, ptr %10, align 1
  %29 = trunc i8 %28 to i1
  %30 = load ptr, ptr %6, align 8
  %31 = load ptr, ptr %7, align 8
  %32 = call noundef zeroext i1 @_ZN13Probabilities25parse_group_probabilitiesEbRNSt7__cxx1112basic_stringIcSt11char_traitsIcESaIcEEERKS5_(ptr noundef nonnull align 8 dereferenceable(288) %11, i1 noundef zeroext %29, ptr noundef nonnull align 8 dereferenceable(32) %30, ptr noundef nonnull align 8 dereferenceable(32) %31)
  %33 = zext i1 %32 to i8
  store i8 %33, ptr %9, align 1
  br label %51

34:                                               ; preds = %23
  %35 = load i8, ptr %8, align 1
  %36 = sext i8 %35 to i32
  %37 = icmp eq i32 %36, 40
  br i1 %37, label %38, label %45

38:                                               ; preds = %34
  store i8 1, ptr %10, align 1
  %39 = load i8, ptr %10, align 1
  %40 = trunc i8 %39 to i1
  %41 = load ptr, ptr %6, align 8
  %42 = load ptr, ptr %7, align 8
  %43 = call noundef zeroext i1 @_ZN13Probabilities25parse_group_probabilitiesEbRNSt7__cxx1112basic_stringIcSt11char_traitsIcESaIcEEERKS5_(ptr noundef nonnull align 8 dereferenceable(288) %11, i1 noundef zeroext %40, ptr noundef nonnull align 8 dereferenceable(32) %41, ptr noundef nonnull align 8 dereferenceable(32) %42)
  %44 = zext i1 %43 to i8
  store i8 %44, ptr %9, align 1
  br label %50

45:                                               ; preds = %34
  %46 = load ptr, ptr %6, align 8
  %47 = load ptr, ptr %7, align 8
  %48 = call noundef zeroext i1 @_ZN13Probabilities24parse_single_probabilityERNSt7__cxx1112basic_stringIcSt11char_traitsIcESaIcEEERKS5_(ptr noundef nonnull align 8 dereferenceable(288) %11, ptr noundef nonnull align 8 dereferenceable(32) %46, ptr noundef nonnull align 8 dereferenceable(32) %47)
  %49 = zext i1 %48 to i8
  store i8 %49, ptr %9, align 1
  br label %50

50:                                               ; preds = %45, %38
  br label %51

51:                                               ; preds = %50, %27
  br label %52

52:                                               ; preds = %51
  br label %53

53:                                               ; preds = %52, %17
  %54 = load i8, ptr %9, align 1
  %55 = trunc i8 %54 to i1
  store i1 %55, ptr %4, align 1
  br label %56

56:                                               ; preds = %53, %22
  %57 = load i1, ptr %4, align 1
  ret i1 %57
}