; Function Attrs: mustprogress uwtable
define dso_local noundef zeroext i1 @_ZN13Probabilities10parse_lineERNSt7__cxx1112basic_stringIcSt11char_traitsIcESaIcEEES6_(ptr noundef nonnull align 8 dereferenceable(288) %0, ptr noundef nonnull align 8 dereferenceable(32) %1, ptr noundef nonnull align 8 dereferenceable(32) %2) local_unnamed_addr #3 align 2 {
  %4 = tail call noundef signext i8 @_ZN11StringUtils19first_nonspace_charERKNSt7__cxx1112basic_stringIcSt11char_traitsIcESaIcEEE(ptr noundef nonnull align 8 dereferenceable(32) %2)
  switch i8 %4, label %9 [
    i8 0, label %11
    i8 35, label %12
    i8 91, label %5
    i8 40, label %7
  ]

5:                                                ; preds = %3
  %6 = tail call noundef zeroext i1 @_ZN13Probabilities25parse_group_probabilitiesEbRNSt7__cxx1112basic_stringIcSt11char_traitsIcESaIcEEERKS5_(ptr noundef nonnull align 8 dereferenceable(288) %0, i1 noundef zeroext false, ptr noundef nonnull align 8 dereferenceable(32) %1, ptr noundef nonnull align 8 dereferenceable(32) %2)
  br label %12

7:                                                ; preds = %3
  %8 = tail call noundef zeroext i1 @_ZN13Probabilities25parse_group_probabilitiesEbRNSt7__cxx1112basic_stringIcSt11char_traitsIcESaIcEEERKS5_(ptr noundef nonnull align 8 dereferenceable(288) %0, i1 noundef zeroext true, ptr noundef nonnull align 8 dereferenceable(32) %1, ptr noundef nonnull align 8 dereferenceable(32) %2)
  br label %12

9:                                                ; preds = %3
  %10 = tail call noundef zeroext i1 @_ZN13Probabilities24parse_single_probabilityERNSt7__cxx1112basic_stringIcSt11char_traitsIcESaIcEEERKS5_(ptr noundef nonnull align 8 dereferenceable(288) %0, ptr nonnull align 8 poison, ptr noundef nonnull align 8 dereferenceable(32) %2)
  br label %12

11:                                               ; preds = %3
  br label %12

12:                                               ; preds = %5, %9, %7, %3, %11
  %.015 = phi i1 [ true, %3 ], [ %6, %5 ], [ %8, %7 ], [ true, %9 ], [ false, %11 ]
  ret i1 %.015
}